target datalayout = "e-m:e-p270:32:32-p271:32:32-p272:64:64-i64:64-i128:128-f80:128-n8:16:32:64-S128"
target triple = "x86_64-pc-linux-gnu"

%class.abstract_device_t = type { ptr }
%"class.std::__cxx11::basic_string" = type { %"struct.std::__cxx11::basic_string<char>::_Alloc_hider", i64, %union.anon }
%"struct.std::__cxx11::basic_string<char>::_Alloc_hider" = type { ptr }
%union.anon = type { i64, [8 x i8] }
%"class.std::locale" = type { ptr }
%"class.std::basic_ios" = type { %"class.std::ios_base", ptr, i8, i8, ptr, ptr, ptr, ptr }
%"class.std::ios_base" = type { ptr, i64, i64, i32, i32, i32, ptr, %"struct.std::ios_base::_Words", [8 x %"struct.std::ios_base::_Words"], i32, ptr, %"class.std::locale" }
%"struct.std::ios_base::_Words" = type { ptr, i64 }
%class.sim_t = type { %class.htif_t, %class.simif_t, %class.isa_parser_t, ptr, %"class.std::vector.48", %"class.std::vector.53", %"class.std::map.58", %"struct.std::pair", %"class.std::__cxx11::basic_string", %"class.std::__cxx11::basic_string", i8, %"class.std::vector.63", %"class.std::shared_ptr", %"class.std::shared_ptr.68", %class.bus_t, %class.log_file_t, ptr, ptr, %"class.std::basic_ostream", i64, i64, i8, i8, i8, ptr, %"class.std::optional", %class.debug_module_t }
%class.htif_t = type { %class.chunked_memif_t, i32, %class.memif_t, i64, i8, %"class.std::vector", %"class.std::vector", %"class.std::__cxx11::basic_string", i32, i64, i64, i64, i64, i32, i8, %class.device_list_t, %class.syscall_t, %class.bcd_t, %"class.std::vector.6", %"class.std::vector", %"class.std::vector", %"class.std::map" }
%class.chunked_memif_t = type { ptr }
%class.memif_t = type { ptr, ptr }
%class.device_list_t = type { %"class.std::vector.6", %class.null_device_t, i64 }
%class.null_device_t = type { %class.device_t }
%class.device_t = type { ptr, %"class.std::vector.11", %"class.std::vector" }
%"class.std::vector.11" = type { %"struct.std::_Vector_base.12" }
%"struct.std::_Vector_base.12" = type { %"struct.std::_Vector_base<std::function<void (command_t)>, std::allocator<std::function<void (command_t)>>>::_Vector_impl" }
%"struct.std::_Vector_base<std::function<void (command_t)>, std::allocator<std::function<void (command_t)>>>::_Vector_impl" = type { %"struct.std::_Vector_base<std::function<void (command_t)>, std::allocator<std::function<void (command_t)>>>::_Vector_impl_data" }
%"struct.std::_Vector_base<std::function<void (command_t)>, std::allocator<std::function<void (command_t)>>>::_Vector_impl_data" = type { ptr, ptr, ptr }
%class.syscall_t = type { %class.device_t, ptr, ptr, %"class.std::vector.16", %class.fds_t, %"class.std::vector.26", %"class.std::__cxx11::basic_string" }
%"class.std::vector.16" = type { %"struct.std::_Vector_base.17" }
%"struct.std::_Vector_base.17" = type { %"struct.std::_Vector_base<unsigned long (syscall_t::*)(unsigned long, unsigned long, unsigned long, unsigned long, unsigned long, unsigned long, unsigned long), std::allocator<unsigned long (syscall_t::*)(unsigned long, unsigned long, unsigned long, unsigned long, unsigned long, unsigned long, unsigned long)>>::_Vector_impl" }
%"struct.std::_Vector_base<unsigned long (syscall_t::*)(unsigned long, unsigned long, unsigned long, unsigned long, unsigned long, unsigned long, unsigned long), std::allocator<unsigned long (syscall_t::*)(unsigned long, unsigned long, unsigned long, unsigned long, unsigned long, unsigned long, unsigned long)>>::_Vector_impl" = type { %"struct.std::_Vector_base<unsigned long (syscall_t::*)(unsigned long, unsigned long, unsigned long, unsigned long, unsigned long, unsigned long, unsigned long), std::allocator<unsigned long (syscall_t::*)(unsigned long, unsigned long, unsigned long, unsigned long, unsigned long, unsigned long, unsigned long)>>::_Vector_impl_data" }
%"struct.std::_Vector_base<unsigned long (syscall_t::*)(unsigned long, unsigned long, unsigned long, unsigned long, unsigned long, unsigned long, unsigned long), std::allocator<unsigned long (syscall_t::*)(unsigned long, unsigned long, unsigned long, unsigned long, unsigned long, unsigned long, unsigned long)>>::_Vector_impl_data" = type { ptr, ptr, ptr }
%class.fds_t = type { %"class.std::vector.21" }
%"class.std::vector.21" = type { %"struct.std::_Vector_base.22" }
%"struct.std::_Vector_base.22" = type { %"struct.std::_Vector_base<int, std::allocator<int>>::_Vector_impl" }
%"struct.std::_Vector_base<int, std::allocator<int>>::_Vector_impl" = type { %"struct.std::_Vector_base<int, std::allocator<int>>::_Vector_impl_data" }
%"struct.std::_Vector_base<int, std::allocator<int>>::_Vector_impl_data" = type { ptr, ptr, ptr }
%"class.std::vector.26" = type { %"struct.std::_Vector_base.27" }
%"struct.std::_Vector_base.27" = type { %"struct.std::_Vector_base<unsigned long, std::allocator<unsigned long>>::_Vector_impl" }
%"struct.std::_Vector_base<unsigned long, std::allocator<unsigned long>>::_Vector_impl" = type { %"struct.std::_Vector_base<unsigned long, std::allocator<unsigned long>>::_Vector_impl_data" }
%"struct.std::_Vector_base<unsigned long, std::allocator<unsigned long>>::_Vector_impl_data" = type { ptr, ptr, ptr }
%class.bcd_t = type { %class.device_t, %"class.std::queue.31" }
%"class.std::queue.31" = type { %"class.std::deque.32" }
%"class.std::deque.32" = type { %"class.std::_Deque_base.33" }
%"class.std::_Deque_base.33" = type { %"struct.std::_Deque_base<command_t, std::allocator<command_t>>::_Deque_impl" }
%"struct.std::_Deque_base<command_t, std::allocator<command_t>>::_Deque_impl" = type { %"struct.std::_Deque_base<command_t, std::allocator<command_t>>::_Deque_impl_data" }
%"struct.std::_Deque_base<command_t, std::allocator<command_t>>::_Deque_impl_data" = type { ptr, i64, %"struct.std::_Deque_iterator.37", %"struct.std::_Deque_iterator.37" }
%"struct.std::_Deque_iterator.37" = type { ptr, ptr, ptr, ptr }
%"class.std::vector.6" = type { %"struct.std::_Vector_base.7" }
%"struct.std::_Vector_base.7" = type { %"struct.std::_Vector_base<device_t *, std::allocator<device_t *>>::_Vector_impl" }
%"struct.std::_Vector_base<device_t *, std::allocator<device_t *>>::_Vector_impl" = type { %"struct.std::_Vector_base<device_t *, std::allocator<device_t *>>::_Vector_impl_data" }
%"struct.std::_Vector_base<device_t *, std::allocator<device_t *>>::_Vector_impl_data" = type { ptr, ptr, ptr }
%"class.std::vector" = type { %"struct.std::_Vector_base" }
%"struct.std::_Vector_base" = type { %"struct.std::_Vector_base<std::__cxx11::basic_string<char>, std::allocator<std::__cxx11::basic_string<char>>>::_Vector_impl" }
%"struct.std::_Vector_base<std::__cxx11::basic_string<char>, std::allocator<std::__cxx11::basic_string<char>>>::_Vector_impl" = type { %"struct.std::_Vector_base<std::__cxx11::basic_string<char>, std::allocator<std::__cxx11::basic_string<char>>>::_Vector_impl_data" }
%"struct.std::_Vector_base<std::__cxx11::basic_string<char>, std::allocator<std::__cxx11::basic_string<char>>>::_Vector_impl_data" = type { ptr, ptr, ptr }
%"class.std::map" = type { %"class.std::_Rb_tree" }
%"class.std::_Rb_tree" = type { %"struct.std::_Rb_tree<unsigned long, std::pair<const unsigned long, std::__cxx11::basic_string<char>>, std::_Select1st<std::pair<const unsigned long, std::__cxx11::basic_string<char>>>, std::less<unsigned long>>::_Rb_tree_impl" }
%"struct.std::_Rb_tree<unsigned long, std::pair<const unsigned long, std::__cxx11::basic_string<char>>, std::_Select1st<std::pair<const unsigned long, std::__cxx11::basic_string<char>>>, std::less<unsigned long>>::_Rb_tree_impl" = type { %"struct.std::_Rb_tree_key_compare", %"struct.std::_Rb_tree_header" }
%"struct.std::_Rb_tree_key_compare" = type { %"struct.std::less" }
%"struct.std::less" = type { i8 }
%"struct.std::_Rb_tree_header" = type { %"struct.std::_Rb_tree_node_base", i64 }
%"struct.std::_Rb_tree_node_base" = type { i32, ptr, ptr, ptr }
%class.simif_t = type { ptr, ptr }
%class.isa_parser_t = type { i32, i64, %"class.std::bitset", %"class.std::__cxx11::basic_string", %"class.std::set" }
%"class.std::bitset" = type { %"struct.std::_Base_bitset" }
%"struct.std::_Base_bitset" = type { [3 x i64] }
%"class.std::set" = type { %"class.std::_Rb_tree.41" }
%"class.std::_Rb_tree.41" = type { %"struct.std::_Rb_tree<std::__cxx11::basic_string<char>, std::__cxx11::basic_string<char>, std::_Identity<std::__cxx11::basic_string<char>>, std::less<std::__cxx11::basic_string<char>>>::_Rb_tree_impl" }
%"struct.std::_Rb_tree<std::__cxx11::basic_string<char>, std::__cxx11::basic_string<char>, std::_Identity<std::__cxx11::basic_string<char>>, std::less<std::__cxx11::basic_string<char>>>::_Rb_tree_impl" = type { %"struct.std::_Rb_tree_key_compare.45", %"struct.std::_Rb_tree_header" }
%"struct.std::_Rb_tree_key_compare.45" = type { %"struct.std::less.46" }
%"struct.std::less.46" = type { i8 }
%"class.std::vector.48" = type { %"struct.std::_Vector_base.49" }
%"struct.std::_Vector_base.49" = type { %"struct.std::_Vector_base<std::pair<unsigned long, abstract_mem_t *>, std::allocator<std::pair<unsigned long, abstract_mem_t *>>>::_Vector_impl" }
%"struct.std::_Vector_base<std::pair<unsigned long, abstract_mem_t *>, std::allocator<std::pair<unsigned long, abstract_mem_t *>>>::_Vector_impl" = type { %"struct.std::_Vector_base<std::pair<unsigned long, abstract_mem_t *>, std::allocator<std::pair<unsigned long, abstract_mem_t *>>>::_Vector_impl_data" }
%"struct.std::_Vector_base<std::pair<unsigned long, abstract_mem_t *>, std::allocator<std::pair<unsigned long, abstract_mem_t *>>>::_Vector_impl_data" = type { ptr, ptr, ptr }
%"class.std::vector.53" = type { %"struct.std::_Vector_base.54" }
%"struct.std::_Vector_base.54" = type { %"struct.std::_Vector_base<processor_t *, std::allocator<processor_t *>>::_Vector_impl" }
%"struct.std::_Vector_base<processor_t *, std::allocator<processor_t *>>::_Vector_impl" = type { %"struct.std::_Vector_base<processor_t *, std::allocator<processor_t *>>::_Vector_impl_data" }
%"struct.std::_Vector_base<processor_t *, std::allocator<processor_t *>>::_Vector_impl_data" = type { ptr, ptr, ptr }
%"class.std::map.58" = type { %"class.std::_Rb_tree.59" }
%"class.std::_Rb_tree.59" = type { %"struct.std::_Rb_tree<unsigned long, std::pair<const unsigned long, processor_t *>, std::_Select1st<std::pair<const unsigned long, processor_t *>>, std::less<unsigned long>>::_Rb_tree_impl" }
%"struct.std::_Rb_tree<unsigned long, std::pair<const unsigned long, processor_t *>, std::_Select1st<std::pair<const unsigned long, processor_t *>>, std::less<unsigned long>>::_Rb_tree_impl" = type { %"struct.std::_Rb_tree_key_compare", %"struct.std::_Rb_tree_header" }
%"struct.std::pair" = type { i64, i64 }
%"class.std::vector.63" = type { %"struct.std::_Vector_base.64" }
%"struct.std::_Vector_base.64" = type { %"struct.std::_Vector_base<std::shared_ptr<abstract_device_t>, std::allocator<std::shared_ptr<abstract_device_t>>>::_Vector_impl" }
%"struct.std::_Vector_base<std::shared_ptr<abstract_device_t>, std::allocator<std::shared_ptr<abstract_device_t>>>::_Vector_impl" = type { %"struct.std::_Vector_base<std::shared_ptr<abstract_device_t>, std::allocator<std::shared_ptr<abstract_device_t>>>::_Vector_impl_data" }
%"struct.std::_Vector_base<std::shared_ptr<abstract_device_t>, std::allocator<std::shared_ptr<abstract_device_t>>>::_Vector_impl_data" = type { ptr, ptr, ptr }
%"class.std::shared_ptr" = type { %"class.std::__shared_ptr" }
%"class.std::__shared_ptr" = type { ptr, %"class.std::__shared_count" }
%"class.std::__shared_count" = type { ptr }
%"class.std::shared_ptr.68" = type { %"class.std::__shared_ptr.69" }
%"class.std::__shared_ptr.69" = type { ptr, %"class.std::__shared_count" }
%class.bus_t = type { %class.abstract_device_t, %"class.std::map.71" }
%"class.std::map.71" = type { %"class.std::_Rb_tree.72" }
%"class.std::_Rb_tree.72" = type { %"struct.std::_Rb_tree<unsigned long, std::pair<const unsigned long, abstract_device_t *>, std::_Select1st<std::pair<const unsigned long, abstract_device_t *>>, std::less<unsigned long>>::_Rb_tree_impl" }
%"struct.std::_Rb_tree<unsigned long, std::pair<const unsigned long, abstract_device_t *>, std::_Select1st<std::pair<const unsigned long, abstract_device_t *>>, std::less<unsigned long>>::_Rb_tree_impl" = type { %"struct.std::_Rb_tree_key_compare", %"struct.std::_Rb_tree_header" }
%class.log_file_t = type { %"class.std::unique_ptr" }
%"class.std::unique_ptr" = type { %"struct.std::__uniq_ptr_data" }
%"struct.std::__uniq_ptr_data" = type { %"class.std::__uniq_ptr_impl" }
%"class.std::__uniq_ptr_impl" = type { %"class.std::tuple" }
%"class.std::tuple" = type { %"struct.std::_Tuple_impl" }
%"struct.std::_Tuple_impl" = type { %"struct.std::_Tuple_impl.76", %"struct.std::_Head_base.77" }
%"struct.std::_Tuple_impl.76" = type { %"struct.std::_Head_base" }
%"struct.std::_Head_base" = type { ptr }
%"struct.std::_Head_base.77" = type { ptr }
%"class.std::basic_ostream" = type { ptr, %"class.std::basic_ios" }
%"class.std::optional" = type { %"struct.std::_Optional_base" }
%"struct.std::_Optional_base" = type { %"struct.std::_Optional_payload" }
%"struct.std::_Optional_payload" = type { %"struct.std::_Optional_payload.base", [7 x i8] }
%"struct.std::_Optional_payload.base" = type { %"struct.std::_Optional_payload_base.base" }
%"struct.std::_Optional_payload_base.base" = type <{ %"union.std::_Optional_payload_base<std::function<void ()>>::_Storage", i8 }>
%"union.std::_Optional_payload_base<std::function<void ()>>::_Storage" = type { %"class.std::function" }
%"class.std::function" = type { %"class.std::_Function_base", ptr }
%"class.std::_Function_base" = type { %"union.std::_Any_data", ptr }
%"union.std::_Any_data" = type { %"union.std::_Nocopy_types" }
%"union.std::_Nocopy_types" = type { { i64, i64 } }
%class.debug_module_t = type <{ %class.abstract_device_t, %struct.debug_module_config_t, i32, i32, i32, i32, ptr, [4 x i8], [48 x i8], [4 x i8], ptr, [8 x i8], %"class.std::vector.80", [1024 x i8], %struct.dmcontrol_t, %struct.dmstatus_t, %struct.abstractcs_t, %struct.abstractauto_t, i32, i16, [2 x i8], %"class.std::vector.85", %struct.sbcs_t, [4 x i32], [4 x i32], i32, i32, i8, [3 x i8], i32, [2 x i8], [2 x i8], i32, i32, [4 x i8] }>
%struct.debug_module_config_t = type <{ i32, i32, i8, [3 x i8], i32, i8, i8, i8, i8, i8, [3 x i8] }>
%"class.std::vector.80" = type { %"struct.std::_Vector_base.81" }
%"struct.std::_Vector_base.81" = type { %"struct.std::_Vector_base<hart_debug_state_t, std::allocator<hart_debug_state_t>>::_Vector_impl" }
%"struct.std::_Vector_base<hart_debug_state_t, std::allocator<hart_debug_state_t>>::_Vector_impl" = type { %"struct.std::_Vector_base<hart_debug_state_t, std::allocator<hart_debug_state_t>>::_Vector_impl_data" }
%"struct.std::_Vector_base<hart_debug_state_t, std::allocator<hart_debug_state_t>>::_Vector_impl_data" = type { ptr, ptr, ptr }
%struct.dmcontrol_t = type { i8, i8, i8, i32, i8, i8, i8 }
%struct.dmstatus_t = type { i8, i8, i8, i8, i8, i8, i8, i8, i8, i8, i8, i8, i8, i8, i8, i8, i32 }
%struct.abstractcs_t = type { i8, i32, i32, i32 }
%struct.abstractauto_t = type { i32, i32 }
%"class.std::vector.85" = type { %"struct.std::_Bvector_base" }
%"struct.std::_Bvector_base" = type { %"struct.std::_Bvector_base<std::allocator<bool>>::_Bvector_impl" }
%"struct.std::_Bvector_base<std::allocator<bool>>::_Bvector_impl" = type { %"struct.std::_Bvector_base<std::allocator<bool>>::_Bvector_impl_data" }
%"struct.std::_Bvector_base<std::allocator<bool>>::_Bvector_impl_data" = type { %"struct.std::_Bit_iterator", %"struct.std::_Bit_iterator", ptr }
%"struct.std::_Bit_iterator" = type { %"struct.std::_Bit_iterator_base.base", [4 x i8] }
%"struct.std::_Bit_iterator_base.base" = type <{ ptr, i32 }>
%struct.sbcs_t = type { i32, i8, i32, i8, i8, i32, i32, i8, i8, i8, i8, i8, i8 }

@.str.8 = private unnamed_addr constant [9 x i8] c"ns16550a\00", align 1
@_ZN9ns16550_tC1EP31abstract_interrupt_controller_tjjj = unnamed_addr alias void (ptr, ptr, i32, i32, i32), ptr @_ZN9ns16550_tC2EP31abstract_interrupt_controller_tjjj

; Function Attrs: mustprogress nounwind uwtable
define linkonce_odr noundef ptr @_ZNKSt12__shared_ptrI6plic_tLN9__gnu_cxx12_Lock_policyE2EE3getEv(ptr noundef nonnull align 8 dereferenceable(16) %0) #5 comdat align 2 {
  %2 = alloca ptr, align 8
  store ptr %0, ptr %2, align 8
  %3 = load ptr, ptr %2, align 8
  %4 = getelementptr inbounds %"class.std::__shared_ptr.69", ptr %3, i32 0, i32 0
  %5 = load ptr, ptr %4, align 8
  ret ptr %5
}

; Function Attrs: mustprogress nounwind uwtable
define linkonce_odr noundef ptr @_ZNK5sim_t11get_intctrlEv(ptr noundef nonnull align 8 dereferenceable(2888) %0) #5 comdat align 2 {
  %2 = alloca ptr, align 8
  store ptr %0, ptr %2, align 8
  %3 = load ptr, ptr %2, align 8
  %4 = getelementptr inbounds %class.sim_t, ptr %3, i32 0, i32 13
  %5 = call noundef ptr @_ZNKSt12__shared_ptrI6plic_tLN9__gnu_cxx12_Lock_policyE2EE3getEv(ptr noundef nonnull align 8 dereferenceable(16) %4) #3
  %6 = icmp eq ptr %5, null
  br i1 %6, label %9, label %7

7:                                                ; preds = %1
  %8 = getelementptr inbounds i8, ptr %5, i64 8
  br label %9

9:                                                ; preds = %7, %1
  %10 = phi ptr [ %8, %7 ], [ null, %1 ]
  ret ptr %10
}

; Function Attrs: mustprogress uwtable
define noundef ptr @_Z22ns16550_parse_from_fdtPKvPK5sim_tPmRKSt6vectorINSt7__cxx1112basic_stringIcSt11char_traitsIcESaIcEEESaISB_EE(ptr noundef %0, ptr noundef %1, ptr noundef %2, ptr noundef nonnull align 8 dereferenceable(24) %3) #4 personality ptr @__gxx_personality_v0 {
  %5 = alloca ptr, align 8
  %6 = alloca ptr, align 8
  %7 = alloca ptr, align 8
  %8 = alloca ptr, align 8
  %9 = alloca ptr, align 8
  %10 = alloca i32, align 4
  %11 = alloca i32, align 4
  %12 = alloca i32, align 4
  %13 = alloca ptr, align 8
  %14 = alloca ptr, align 8
  %15 = alloca i32, align 4
  store ptr %0, ptr %6, align 8
  store ptr %1, ptr %7, align 8
  store ptr %2, ptr %8, align 8
  store ptr %3, ptr %9, align 8
  %16 = load ptr, ptr %6, align 8
  %17 = load ptr, ptr %8, align 8
  %18 = call noundef i32 @_Z17fdt_parse_ns16550PKvPmPjS2_S2_PKc(ptr noundef %16, ptr noundef %17, ptr noundef %10, ptr noundef %11, ptr noundef %12, ptr noundef @.str.8)
  %19 = icmp eq i32 %18, 0
  br i1 %19, label %20, label %33

20:                                               ; preds = %4
  %21 = load ptr, ptr %7, align 8
  %22 = call noundef ptr @_ZNK5sim_t11get_intctrlEv(ptr noundef nonnull align 8 dereferenceable(2888) %21)
  store ptr %22, ptr %13, align 8
  %23 = call noalias noundef nonnull ptr @_Znwm(i64 noundef 128) #14
  %24 = load ptr, ptr %13, align 8
  %25 = load i32, ptr %12, align 4
  %26 = load i32, ptr %10, align 4
  %27 = load i32, ptr %11, align 4
  invoke void @_ZN9ns16550_tC1EP31abstract_interrupt_controller_tjjj(ptr noundef nonnull align 8 dereferenceable(128) %23, ptr noundef %24, i32 noundef %25, i32 noundef %26, i32 noundef %27)
          to label %28 unwind label %29

28:                                               ; preds = %20
  store ptr %23, ptr %5, align 8
  br label %34

29:                                               ; preds = %20
  %30 = landingpad { ptr, i32 }
          cleanup
  %31 = extractvalue { ptr, i32 } %30, 0
  store ptr %31, ptr %14, align 8
  %32 = extractvalue { ptr, i32 } %30, 1
  store i32 %32, ptr %15, align 4
  call void @_ZdlPv(ptr noundef %23) #15
  br label %36

33:                                               ; preds = %4
  store ptr null, ptr %5, align 8
  br label %34

34:                                               ; preds = %33, %28
  %35 = load ptr, ptr %5, align 8
  ret ptr %35

36:                                               ; preds = %29
  %37 = load ptr, ptr %14, align 8
  %38 = load i32, ptr %15, align 4
  %39 = insertvalue { ptr, i32 } poison, ptr %37, 0
  %40 = insertvalue { ptr, i32 } %39, i32 %38, 1
  resume { ptr, i32 } %40
}