; Function Attrs: mustprogress uwtable
define noundef ptr @_Z22ns16550_parse_from_fdtPKvPK5sim_tPmRKSt6vectorINSt7__cxx1112basic_stringIcSt11char_traitsIcESaIcEEESaISB_EE(ptr noundef %0, ptr nocapture noundef readonly %1, ptr noundef %2, ptr nocapture noundef nonnull readnone align 8 dereferenceable(24) %3) local_unnamed_addr #3 personality ptr @__gxx_personality_v0 {
  %5 = alloca i32, align 4
  %6 = alloca i32, align 4
  %7 = alloca i32, align 4
  %8 = call noundef i32 @_Z17fdt_parse_ns16550PKvPmPjS2_S2_PKc(ptr noundef %0, ptr noundef %2, ptr noundef nonnull %5, ptr noundef nonnull %6, ptr noundef nonnull %7, ptr noundef nonnull @.str.8)
  %9 = icmp eq i32 %8, 0
  br i1 %9, label %10, label %21

10:                                               ; preds = %4
  %11 = getelementptr inbounds i8, ptr %1, i64 1064
  %12 = load ptr, ptr %11, align 8
  %13 = icmp eq ptr %12, null
  %14 = getelementptr inbounds i8, ptr %12, i64 8
  %spec.select.i = select i1 %13, ptr null, ptr %14
  %15 = call noalias noundef nonnull dereferenceable(128) ptr @_Znwm(i64 noundef 128) #20
  %16 = load i32, ptr %7, align 4
  %17 = load i32, ptr %5, align 4
  %18 = load i32, ptr %6, align 4
  invoke void @_ZN9ns16550_tC1EP31abstract_interrupt_controller_tjjj(ptr noundef nonnull align 8 dereferenceable(128) %15, ptr noundef %spec.select.i, i32 noundef %16, i32 noundef %17, i32 noundef %18)
          to label %21 unwind label %19

19:                                               ; preds = %10
  %20 = landingpad { ptr, i32 }
          cleanup
  call void @_ZdlPv(ptr noundef nonnull %15) #18
  resume { ptr, i32 } %20

21:                                               ; preds = %4, %10
  %.0 = phi ptr [ %15, %10 ], [ null, %4 ]
  ret ptr %.0
}